Certificate:
    Data:
        Version: 3 (0x2)
        Serial Number: 16 (0x10)
    Signature Algorithm: sha384WithRSAEncryption
        Issuer: C=US, ST=California, L=Sunnyvale, O=Juniper, OU=Base/emailAddress=student@juniper.net
        Validity
            Not Before: Jan 30 18:02:05 2019 GMT
            Not After : Jan 27 18:02:05 2029 GMT
        Subject: C=US, ST=California, O=Juniper, OU=Base, CN=srx1.juniper.net
        Subject Public Key Info:
            Public Key Algorithm: rsaEncryption
                Public-Key: (1024 bit)
                Modulus:
                    00:98:6d:11:2a:d3:6d:92:9c:fd:0d:4a:f2:43:26:
                    db:40:df:4a:56:31:ae:d3:ef:8c:5b:6a:45:62:9e:
                    42:2c:b7:3b:83:27:21:9a:c3:a2:e5:e7:c4:3c:20:
                    ef:d6:58:00:d6:6c:bb:c0:ed:7b:95:dc:2a:71:e1:
                    53:ac:97:82:5b:2e:be:ae:59:0a:6c:46:48:c2:3a:
                    3e:c6:6b:c9:26:7e:7c:a1:73:c6:08:d8:d9:36:dd:
                    7f:36:76:74:8e:fa:7f:42:80:e3:18:1d:06:8c:2a:
                    cc:ab:31:8d:62:fc:52:a7:20:b9:d0:a7:3d:e7:10:
                    58:7d:b6:c8:4e:5e:9e:5b:5b
                Exponent: 65537 (0x10001)
        X509v3 extensions:
            X509v3 Subject Alternative Name: 
                email:student@juniper.net
    Signature Algorithm: sha384WithRSAEncryption
         07:33:d0:eb:a7:d1:1c:d6:71:5a:a1:5a:55:5a:1d:b2:46:fe:
         e0:9e:56:9a:f7:5d:a4:e2:9c:ba:3f:95:3a:e5:de:ac:66:d9:
         f7:a1:3a:7a:b9:96:bd:80:a1:a2:9c:7e:cc:3c:c3:02:08:86:
         09:52:ab:ff:de:27:4e:16:35:ba:64:b3:bc:18:0b:49:35:78:
         24:9b:0b:50:56:b7:24:11:4e:dc:23:9f:ad:4e:0d:c1:78:85:
         f7:d3:10:4e:df:0c:7b:e3:16:77:be:6d:c9:71:a8:2b:e0:61:
         8b:d2:7c:69:04:0b:89:77:4f:2e:ce:09:7d:5f:82:ee:48:82:
         31:c1
-----BEGIN CERTIFICATE-----
MIICcTCCAdqgAwIBAgIBEDANBgkqhkiG9w0BAQwFADB7MQswCQYDVQQGEwJVUzET
MBEGA1UECBMKQ2FsaWZvcm5pYTESMBAGA1UEBxMJU3Vubnl2YWxlMRAwDgYDVQQK
EwdKdW5pcGVyMQ0wCwYDVQQLEwRCYXNlMSIwIAYJKoZIhvcNAQkBFhNzdHVkZW50
QGp1bmlwZXIubmV0MB4XDTE5MDEzMDE4MDIwNVoXDTI5MDEyNzE4MDIwNVowXjEL
MAkGA1UEBhMCVVMxEzARBgNVBAgTCkNhbGlmb3JuaWExEDAOBgNVBAoTB0p1bmlw
ZXIxDTALBgNVBAsTBEJhc2UxGTAXBgNVBAMTEHNyeDEuanVuaXBlci5uZXQwgZ8w
DQYJKoZIhvcNAQEBBQADgY0AMIGJAoGBAJhtESrTbZKc/Q1K8kMm20DfSlYxrtPv
jFtqRWKeQiy3O4MnIZrDouXnxDwg79ZYANZsu8Dte5XcKnHhU6yXglsuvq5ZCmxG
SMI6PsZrySZ+fKFzxgjY2TbdfzZ2dI76f0KA4xgdBowqzKsxjWL8UqcgudCnPecQ
WH22yE5enltbAgMBAAGjIjAgMB4GA1UdEQQXMBWBE3N0dWRlbnRAanVuaXBlci5u
ZXQwDQYJKoZIhvcNAQEMBQADgYEABzPQ66fRHNZxWqFaVVodskb+4J5WmvddpOKc
uj+VOuXerGbZ96E6ermWvYChopx+zDzDAgiGCVKr/94nThY1umSzvBgLSTV4JJsL
UFa3JBFO3COfrU4NwXiF99MQTt8Me+MWd75tyXGoK+Bhi9J8aQQLiXdPLs4JfV+C
7kiCMcE=
-----END CERTIFICATE-----
