Certificate:
    Data:
        Version: 3 (0x2)
        Serial Number: 19 (0x13)
    Signature Algorithm: sha384WithRSAEncryption
        Issuer: C=US, ST=California, L=Sunnyvale, O=Juniper, OU=Base/emailAddress=student@juniper.net
        Validity
            Not Before: Jan 30 18:02:40 2019 GMT
            Not After : Jan 27 18:02:40 2029 GMT
        Subject: C=US, ST=California, O=Juniper, OU=Base, CN=srx5.juniper.net
        Subject Public Key Info:
            Public Key Algorithm: rsaEncryption
                Public-Key: (1024 bit)
                Modulus:
                    00:9f:9a:5d:b5:5c:d8:a8:66:9a:1c:9a:e4:bd:75:
                    c0:98:0b:c8:21:a0:e0:c6:ec:2c:79:e2:a6:f2:26:
                    2f:97:be:f7:07:22:a2:ba:97:d9:bc:a2:95:d7:95:
                    77:0d:0b:f8:32:c0:30:8f:cb:b8:42:73:25:9a:23:
                    62:aa:6b:a9:38:cc:5f:ce:de:94:9d:04:84:d6:18:
                    25:97:bd:d9:b1:8f:f9:f1:8c:63:c3:df:ec:6d:91:
                    b0:86:a0:59:82:50:1e:f8:c6:c8:b4:f8:3e:2e:1f:
                    7f:7e:a9:28:88:eb:b2:bc:fa:3f:50:7a:43:a7:af:
                    61:c7:c3:b2:35:3a:dc:2a:89
                Exponent: 65537 (0x10001)
        X509v3 extensions:
            X509v3 Subject Alternative Name: 
                email:student@juniper.net
    Signature Algorithm: sha384WithRSAEncryption
         23:2e:11:54:de:43:03:74:49:69:e8:04:4d:55:c0:23:f3:3e:
         87:a0:0f:1f:bb:88:5a:e0:3a:32:17:2a:c8:20:8c:9a:d1:6d:
         2f:d8:2d:73:5d:43:cc:40:31:ae:53:f6:4f:a7:52:44:ff:54:
         f7:72:a3:a1:f9:f1:16:e7:79:8a:26:0d:82:ed:5c:22:41:6f:
         31:90:fe:08:3c:4a:ce:90:2b:61:35:db:fe:01:40:0a:e0:80:
         cc:d8:6b:6c:e6:41:ab:0a:dd:72:f9:14:9f:80:32:11:f8:52:
         60:97:ad:10:e0:c7:40:47:1c:ab:ee:64:99:a4:18:00:55:2e:
         59:0c
-----BEGIN CERTIFICATE-----
MIICcTCCAdqgAwIBAgIBEzANBgkqhkiG9w0BAQwFADB7MQswCQYDVQQGEwJVUzET
MBEGA1UECBMKQ2FsaWZvcm5pYTESMBAGA1UEBxMJU3Vubnl2YWxlMRAwDgYDVQQK
EwdKdW5pcGVyMQ0wCwYDVQQLEwRCYXNlMSIwIAYJKoZIhvcNAQkBFhNzdHVkZW50
QGp1bmlwZXIubmV0MB4XDTE5MDEzMDE4MDI0MFoXDTI5MDEyNzE4MDI0MFowXjEL
MAkGA1UEBhMCVVMxEzARBgNVBAgTCkNhbGlmb3JuaWExEDAOBgNVBAoTB0p1bmlw
ZXIxDTALBgNVBAsTBEJhc2UxGTAXBgNVBAMTEHNyeDUuanVuaXBlci5uZXQwgZ8w
DQYJKoZIhvcNAQEBBQADgY0AMIGJAoGBAJ+aXbVc2Khmmhya5L11wJgLyCGg4Mbs
LHnipvImL5e+9wciorqX2byildeVdw0L+DLAMI/LuEJzJZojYqprqTjMX87elJ0E
hNYYJZe92bGP+fGMY8Pf7G2RsIagWYJQHvjGyLT4Pi4ff36pKIjrsrz6P1B6Q6ev
YcfDsjU63CqJAgMBAAGjIjAgMB4GA1UdEQQXMBWBE3N0dWRlbnRAanVuaXBlci5u
ZXQwDQYJKoZIhvcNAQEMBQADgYEAIy4RVN5DA3RJaegETVXAI/M+h6APH7uIWuA6
MhcqyCCMmtFtL9gtc11DzEAxrlP2T6dSRP9U93KjofnxFud5iiYNgu1cIkFvMZD+
CDxKzpArYTXb/gFACuCAzNhrbOZBqwrdcvkUn4AyEfhSYJetEODHQEccq+5kmaQY
AFUuWQw=
-----END CERTIFICATE-----
