Certificate:
    Data:
        Version: 3 (0x2)
        Serial Number: 21 (0x15)
    Signature Algorithm: sha384WithRSAEncryption
        Issuer: C=US, ST=California, L=Sunnyvale, O=Juniper, OU=Base/emailAddress=student@juniper.net
        Validity
            Not Before: Jan 30 18:03:03 2019 GMT
            Not After : Jan 27 18:03:03 2029 GMT
        Subject: C=US, ST=California, O=Juniper, OU=Base, CN=srx8.juniper.net
        Subject Public Key Info:
            Public Key Algorithm: rsaEncryption
                Public-Key: (1024 bit)
                Modulus:
                    00:b0:c6:51:77:0f:e0:ba:0d:dc:ec:f3:5d:fc:87:
                    1a:66:ea:55:f0:ac:5e:ff:af:22:0a:5f:a1:49:e1:
                    89:11:7c:3f:6f:05:74:bc:1c:8b:5c:0b:a2:0a:a7:
                    00:74:b2:d2:a1:53:67:57:10:27:1d:41:95:0f:8d:
                    bc:5c:32:eb:c3:75:9e:bc:9d:4f:19:b2:ff:51:95:
                    d6:c4:21:45:07:23:3f:20:67:0e:46:bc:83:ee:c1:
                    eb:5b:cc:f3:97:9b:08:47:f9:09:3c:51:30:13:c9:
                    2d:22:84:8f:55:f3:26:2e:5a:0b:c7:3d:8b:35:7d:
                    04:33:22:e8:b4:ca:a5:c1:c7
                Exponent: 65537 (0x10001)
        X509v3 extensions:
            X509v3 Subject Alternative Name: 
                email:student@juniper.net
    Signature Algorithm: sha384WithRSAEncryption
         c1:83:18:69:2a:db:6b:d2:cd:35:d0:f4:24:01:fb:cc:ba:53:
         73:0f:c3:13:46:25:5b:c9:0b:91:bc:15:ce:6d:4d:9d:90:11:
         e1:62:97:24:2a:e2:be:c1:eb:75:3c:1a:f7:f3:b6:53:3f:2d:
         42:88:26:73:9c:e4:f7:35:05:a1:ff:a9:7e:47:c5:2c:e9:48:
         39:60:06:b8:7a:77:b9:02:d7:c8:3a:c5:36:98:24:d5:54:15:
         55:2a:d1:96:c9:1d:00:63:28:7a:1b:50:7f:ee:b1:fc:a5:44:
         2c:d4:3c:fe:e7:83:8c:c1:0e:5e:ff:ec:fa:a6:8e:d5:f2:5b:
         9d:e9
-----BEGIN CERTIFICATE-----
MIICcTCCAdqgAwIBAgIBFTANBgkqhkiG9w0BAQwFADB7MQswCQYDVQQGEwJVUzET
MBEGA1UECBMKQ2FsaWZvcm5pYTESMBAGA1UEBxMJU3Vubnl2YWxlMRAwDgYDVQQK
EwdKdW5pcGVyMQ0wCwYDVQQLEwRCYXNlMSIwIAYJKoZIhvcNAQkBFhNzdHVkZW50
QGp1bmlwZXIubmV0MB4XDTE5MDEzMDE4MDMwM1oXDTI5MDEyNzE4MDMwM1owXjEL
MAkGA1UEBhMCVVMxEzARBgNVBAgTCkNhbGlmb3JuaWExEDAOBgNVBAoTB0p1bmlw
ZXIxDTALBgNVBAsTBEJhc2UxGTAXBgNVBAMTEHNyeDguanVuaXBlci5uZXQwgZ8w
DQYJKoZIhvcNAQEBBQADgY0AMIGJAoGBALDGUXcP4LoN3OzzXfyHGmbqVfCsXv+v
IgpfoUnhiRF8P28FdLwci1wLogqnAHSy0qFTZ1cQJx1BlQ+NvFwy68N1nrydTxmy
/1GV1sQhRQcjPyBnDka8g+7B61vM85ebCEf5CTxRMBPJLSKEj1XzJi5aC8c9izV9
BDMi6LTKpcHHAgMBAAGjIjAgMB4GA1UdEQQXMBWBE3N0dWRlbnRAanVuaXBlci5u
ZXQwDQYJKoZIhvcNAQEMBQADgYEAwYMYaSrba9LNNdD0JAH7zLpTcw/DE0YlW8kL
kbwVzm1NnZAR4WKXJCrivsHrdTwa9/O2Uz8tQogmc5zk9zUFof+pfkfFLOlIOWAG
uHp3uQLXyDrFNpgk1VQVVSrRlskdAGMoehtQf+6x/KVELNQ8/ueDjMEOXv/s+qaO
1fJbnek=
-----END CERTIFICATE-----
