Certificate:
    Data:
        Version: 3 (0x2)
        Serial Number: 18 (0x12)
    Signature Algorithm: sha384WithRSAEncryption
        Issuer: C=US, ST=California, L=Sunnyvale, O=Juniper, OU=Base/emailAddress=student@juniper.net
        Validity
            Not Before: Jan 30 18:02:26 2019 GMT
            Not After : Jan 27 18:02:26 2029 GMT
        Subject: C=US, ST=California, O=Juniper, OU=Base, CN=srx3.juniper.net
        Subject Public Key Info:
            Public Key Algorithm: rsaEncryption
                Public-Key: (1024 bit)
                Modulus:
                    00:f1:77:15:69:f3:3c:76:57:c2:4b:87:c7:f0:5a:
                    12:03:37:6e:97:25:ea:59:79:bc:8a:53:72:6b:93:
                    d0:23:a0:bb:c7:d2:76:8d:4e:10:32:2b:8b:70:10:
                    8b:34:d8:86:26:32:bb:89:43:a5:ca:33:a4:cd:63:
                    4d:4b:f0:00:c2:2c:7d:72:ef:fb:f5:e0:ff:80:16:
                    ae:19:0d:ef:28:4e:bb:17:c7:64:41:7d:34:38:62:
                    68:14:1a:76:38:32:15:82:27:b0:ce:44:43:72:e2:
                    85:8e:bb:35:63:d4:68:5d:2b:23:55:c9:a1:2e:26:
                    12:cd:ad:2f:6a:91:7e:7a:93
                Exponent: 65537 (0x10001)
        X509v3 extensions:
            X509v3 Subject Alternative Name: 
                email:student@juniper.net
    Signature Algorithm: sha384WithRSAEncryption
         57:3f:19:13:3f:12:37:7a:9f:b1:f3:8c:db:a6:72:ad:10:4f:
         68:6e:44:17:0c:0c:41:e3:42:83:b5:ce:2d:73:4b:80:89:c7:
         f7:35:47:97:77:1e:35:36:e1:b4:6e:a3:9a:7f:66:99:b8:42:
         aa:2a:63:48:4d:4a:9e:a0:d3:bb:a5:17:b9:b4:8e:45:96:33:
         29:75:2d:49:73:51:e7:5b:4e:f7:2f:27:a4:67:fe:82:72:a0:
         e7:3f:ad:18:1b:70:5a:8e:8d:3f:ca:e3:99:87:2d:d2:41:0c:
         a1:60:f3:ca:7b:1a:59:83:61:39:8e:02:d3:da:5c:4e:be:d6:
         8e:06
-----BEGIN CERTIFICATE-----
MIICcTCCAdqgAwIBAgIBEjANBgkqhkiG9w0BAQwFADB7MQswCQYDVQQGEwJVUzET
MBEGA1UECBMKQ2FsaWZvcm5pYTESMBAGA1UEBxMJU3Vubnl2YWxlMRAwDgYDVQQK
EwdKdW5pcGVyMQ0wCwYDVQQLEwRCYXNlMSIwIAYJKoZIhvcNAQkBFhNzdHVkZW50
QGp1bmlwZXIubmV0MB4XDTE5MDEzMDE4MDIyNloXDTI5MDEyNzE4MDIyNlowXjEL
MAkGA1UEBhMCVVMxEzARBgNVBAgTCkNhbGlmb3JuaWExEDAOBgNVBAoTB0p1bmlw
ZXIxDTALBgNVBAsTBEJhc2UxGTAXBgNVBAMTEHNyeDMuanVuaXBlci5uZXQwgZ8w
DQYJKoZIhvcNAQEBBQADgY0AMIGJAoGBAPF3FWnzPHZXwkuHx/BaEgM3bpcl6ll5
vIpTcmuT0COgu8fSdo1OEDIri3AQizTYhiYyu4lDpcozpM1jTUvwAMIsfXLv+/Xg
/4AWrhkN7yhOuxfHZEF9NDhiaBQadjgyFYInsM5EQ3LihY67NWPUaF0rI1XJoS4m
Es2tL2qRfnqTAgMBAAGjIjAgMB4GA1UdEQQXMBWBE3N0dWRlbnRAanVuaXBlci5u
ZXQwDQYJKoZIhvcNAQEMBQADgYEAVz8ZEz8SN3qfsfOM26ZyrRBPaG5EFwwMQeNC
g7XOLXNLgInH9zVHl3ceNTbhtG6jmn9mmbhCqipjSE1KnqDTu6UXubSORZYzKXUt
SXNR51tO9y8npGf+gnKg5z+tGBtwWo6NP8rjmYct0kEMoWDzynsaWYNhOY4C09pc
Tr7WjgY=
-----END CERTIFICATE-----
