Certificate:
    Data:
        Version: 3 (0x2)
        Serial Number: 15 (0xf)
    Signature Algorithm: sha384WithRSAEncryption
        Issuer: C=US, ST=California, L=Sunnyvale, O=Juniper, CN=student/emailAddress=student@juniper.net
        Validity
            Not Before: Jan  9 19:56:24 2019 GMT
            Not After : Jan  6 19:56:24 2029 GMT
        Subject: C=US, ST=California, O=Juniper, OU=Base, CN=srx6.juniper.net
        Subject Public Key Info:
            Public Key Algorithm: rsaEncryption
                Public-Key: (1024 bit)
                Modulus:
                    00:ae:6e:c3:08:ab:f7:03:91:8f:eb:c8:05:51:51:
                    35:61:7c:6b:11:fe:67:b9:91:21:97:40:42:59:84:
                    c0:33:f8:09:be:1b:0a:f5:33:0f:6b:3d:1d:1a:8a:
                    80:8a:c2:20:31:ce:14:ed:a0:ab:c7:fb:a3:89:5c:
                    72:4c:7a:b0:66:73:33:b7:03:e7:7a:0b:1f:47:8a:
                    70:2d:eb:a7:f7:1d:10:4c:8e:57:aa:27:bd:4a:e7:
                    0e:7f:e5:be:17:89:43:0d:04:5e:1e:05:18:78:ec:
                    80:1c:85:4f:d2:3d:2b:56:cb:ac:b9:97:99:54:eb:
                    39:a3:6d:4f:1c:2e:06:2d:79
                Exponent: 65537 (0x10001)
        X509v3 extensions:
            X509v3 Subject Alternative Name: 
                email:student@juniper.net
    Signature Algorithm: sha384WithRSAEncryption
         2b:3c:b4:e2:57:09:2f:b0:e2:98:48:e2:3c:b7:fd:d1:8b:a0:
         f8:f7:00:72:c9:7a:ec:86:67:99:5b:93:3a:0d:3c:08:45:80:
         31:f9:8f:45:21:0e:21:ee:94:2e:5a:cc:4d:9d:d3:b9:ff:61:
         56:fe:93:6d:63:d0:da:00:20:42:4a:ef:b8:84:ba:47:18:0f:
         3c:bf:4b:10:fd:0c:b5:d1:b8:62:cd:21:4d:22:7a:93:63:64:
         04:65:b4:d3:38:68:6e:36:fa:a9:78:0d:9a:aa:13:2e:46:5f:
         4f:85:63:23:4c:64:7c:c4:0a:d8:94:ff:24:2a:58:97:f3:9d:
         78:46
-----BEGIN CERTIFICATE-----
MIICdDCCAd2gAwIBAgIBDzANBgkqhkiG9w0BAQwFADB+MQswCQYDVQQGEwJVUzET
MBEGA1UECBMKQ2FsaWZvcm5pYTESMBAGA1UEBxMJU3Vubnl2YWxlMRAwDgYDVQQK
EwdKdW5pcGVyMRAwDgYDVQQDEwdzdHVkZW50MSIwIAYJKoZIhvcNAQkBFhNzdHVk
ZW50QGp1bmlwZXIubmV0MB4XDTE5MDEwOTE5NTYyNFoXDTI5MDEwNjE5NTYyNFow
XjELMAkGA1UEBhMCVVMxEzARBgNVBAgTCkNhbGlmb3JuaWExEDAOBgNVBAoTB0p1
bmlwZXIxDTALBgNVBAsTBEJhc2UxGTAXBgNVBAMTEHNyeDYuanVuaXBlci5uZXQw
gZ8wDQYJKoZIhvcNAQEBBQADgY0AMIGJAoGBAK5uwwir9wORj+vIBVFRNWF8axH+
Z7mRIZdAQlmEwDP4Cb4bCvUzD2s9HRqKgIrCIDHOFO2gq8f7o4lcckx6sGZzM7cD
53oLH0eKcC3rp/cdEEyOV6onvUrnDn/lvheJQw0EXh4FGHjsgByFT9I9K1bLrLmX
mVTrOaNtTxwuBi15AgMBAAGjIjAgMB4GA1UdEQQXMBWBE3N0dWRlbnRAanVuaXBl
ci5uZXQwDQYJKoZIhvcNAQEMBQADgYEAKzy04lcJL7DimEjiPLf90Yug+PcAcsl6
7IZnmVuTOg08CEWAMfmPRSEOIe6ULlrMTZ3Tuf9hVv6TbWPQ2gAgQkrvuIS6RxgP
PL9LEP0MtdG4Ys0hTSJ6k2NkBGW00zhobjb6qXgNmqoTLkZfT4VjI0xkfMQK2JT/
JCpYl/OdeEY=
-----END CERTIFICATE-----
