Certificate:
    Data:
        Version: 3 (0x2)
        Serial Number: 17 (0x11)
    Signature Algorithm: sha384WithRSAEncryption
        Issuer: C=US, ST=California, L=Sunnyvale, O=Juniper, OU=Base/emailAddress=student@juniper.net
        Validity
            Not Before: Jan 30 18:02:13 2019 GMT
            Not After : Jan 27 18:02:13 2029 GMT
        Subject: C=US, ST=California, O=Juniper, OU=Base, CN=srx2.juniper.net
        Subject Public Key Info:
            Public Key Algorithm: rsaEncryption
                Public-Key: (1024 bit)
                Modulus:
                    00:c8:84:31:c6:9b:3f:a3:67:73:a0:5f:91:af:b5:
                    a2:6a:50:69:fa:8f:c5:5c:29:d8:3c:e1:cf:09:f4:
                    7c:4b:c5:1c:3f:c2:76:57:c4:53:8d:6b:34:4a:0b:
                    91:d7:04:33:ae:e1:18:da:3a:63:60:5e:b5:9f:37:
                    20:57:b0:4e:a0:62:34:49:c9:da:30:34:18:cb:b6:
                    03:68:b6:7d:e7:dd:18:b7:de:0e:0a:ca:67:59:b2:
                    d4:36:b7:ca:a4:fe:6c:36:17:7c:ae:f8:5f:86:6a:
                    c7:ea:11:90:66:b5:40:e5:3f:f0:0f:e2:4e:90:7d:
                    10:88:a6:1c:3f:e6:8d:e6:3d
                Exponent: 65537 (0x10001)
        X509v3 extensions:
            X509v3 Subject Alternative Name: 
                email:student@juniper.net
    Signature Algorithm: sha384WithRSAEncryption
         2a:00:bb:2c:56:59:f5:cf:b4:cb:2d:22:b7:9c:84:74:d0:b1:
         95:ed:ef:94:dc:f4:9e:7c:c8:2e:c5:be:27:b7:3c:5c:a3:f0:
         7c:9f:2a:95:f4:dd:ea:31:0b:db:91:69:06:f5:4c:e3:8e:f5:
         af:c2:c2:1b:e0:29:cf:27:00:84:50:e5:ea:ef:49:64:59:8c:
         12:6a:93:45:1a:97:63:79:b5:ec:c8:3f:9c:c3:0a:ae:b4:6c:
         31:66:2b:7b:a9:01:d3:ba:f3:dc:8c:10:aa:c0:de:f9:f0:6f:
         d0:1f:2c:e4:91:86:2d:21:7e:b0:74:df:bb:bf:fe:63:2a:72:
         72:62
-----BEGIN CERTIFICATE-----
MIICcTCCAdqgAwIBAgIBETANBgkqhkiG9w0BAQwFADB7MQswCQYDVQQGEwJVUzET
MBEGA1UECBMKQ2FsaWZvcm5pYTESMBAGA1UEBxMJU3Vubnl2YWxlMRAwDgYDVQQK
EwdKdW5pcGVyMQ0wCwYDVQQLEwRCYXNlMSIwIAYJKoZIhvcNAQkBFhNzdHVkZW50
QGp1bmlwZXIubmV0MB4XDTE5MDEzMDE4MDIxM1oXDTI5MDEyNzE4MDIxM1owXjEL
MAkGA1UEBhMCVVMxEzARBgNVBAgTCkNhbGlmb3JuaWExEDAOBgNVBAoTB0p1bmlw
ZXIxDTALBgNVBAsTBEJhc2UxGTAXBgNVBAMTEHNyeDIuanVuaXBlci5uZXQwgZ8w
DQYJKoZIhvcNAQEBBQADgY0AMIGJAoGBAMiEMcabP6Nnc6Bfka+1ompQafqPxVwp
2Dzhzwn0fEvFHD/CdlfEU41rNEoLkdcEM67hGNo6Y2BetZ83IFewTqBiNEnJ2jA0
GMu2A2i2fefdGLfeDgrKZ1my1Da3yqT+bDYXfK74X4Zqx+oRkGa1QOU/8A/iTpB9
EIimHD/mjeY9AgMBAAGjIjAgMB4GA1UdEQQXMBWBE3N0dWRlbnRAanVuaXBlci5u
ZXQwDQYJKoZIhvcNAQEMBQADgYEAKgC7LFZZ9c+0yy0it5yEdNCxle3vlNz0nnzI
LsW+J7c8XKPwfJ8qlfTd6jEL25FpBvVM4471r8LCG+ApzycAhFDl6u9JZFmMEmqT
RRqXY3m17Mg/nMMKrrRsMWYre6kB07rz3IwQqsDe+fBv0B8s5JGGLSF+sHTfu7/+
YypycmI=
-----END CERTIFICATE-----
