Certificate:
    Data:
        Version: 3 (0x2)
        Serial Number: 20 (0x14)
    Signature Algorithm: sha384WithRSAEncryption
        Issuer: C=US, ST=California, L=Sunnyvale, O=Juniper, OU=Base/emailAddress=student@juniper.net
        Validity
            Not Before: Jan 30 18:02:53 2019 GMT
            Not After : Jan 27 18:02:53 2029 GMT
        Subject: C=US, ST=California, O=Juniper, OU=Base, CN=srx7.juniper.net
        Subject Public Key Info:
            Public Key Algorithm: rsaEncryption
                Public-Key: (1024 bit)
                Modulus:
                    00:d4:30:44:ea:40:45:22:df:b5:4d:e2:35:84:3f:
                    88:00:92:60:e0:0b:c6:eb:73:06:2f:18:1a:30:5b:
                    9f:53:94:24:90:7d:ca:7f:6e:98:64:7c:7e:66:29:
                    28:a7:75:02:90:97:4a:d2:0f:9b:4b:a1:9a:83:be:
                    b0:93:d4:b0:b5:ae:aa:c3:69:a6:c0:d8:3c:6a:15:
                    33:79:84:0a:d8:99:f2:e4:99:c5:63:a9:11:97:e5:
                    cf:b2:58:35:fa:53:28:5f:6c:1d:be:e7:5b:86:e5:
                    f9:c2:3e:c4:ad:c0:08:c3:68:e9:a6:a3:b6:d9:26:
                    8a:7a:7b:a4:24:38:6e:fd:01
                Exponent: 65537 (0x10001)
        X509v3 extensions:
            X509v3 Subject Alternative Name: 
                email:student@juniper.net
    Signature Algorithm: sha384WithRSAEncryption
         11:58:fd:59:97:c2:57:43:85:0c:53:5d:6e:9e:9b:02:e9:77:
         26:84:45:6b:46:32:a2:df:66:22:53:bb:0e:7c:64:98:52:ab:
         70:8b:63:ca:ab:ce:89:e0:53:fc:7d:0b:28:41:28:4d:60:47:
         34:64:30:bd:69:f0:d7:3b:44:75:c8:88:bc:f2:65:f5:e7:ee:
         0b:42:36:54:0d:44:bd:a4:e9:47:dd:cf:63:a7:3a:76:35:7f:
         47:a4:f1:88:ba:2f:9a:ec:65:59:97:14:ce:b3:8c:da:71:55:
         b7:97:e1:13:f9:e2:49:d8:cb:38:5c:b2:74:9a:6a:0f:6e:76:
         87:22
-----BEGIN CERTIFICATE-----
MIICcTCCAdqgAwIBAgIBFDANBgkqhkiG9w0BAQwFADB7MQswCQYDVQQGEwJVUzET
MBEGA1UECBMKQ2FsaWZvcm5pYTESMBAGA1UEBxMJU3Vubnl2YWxlMRAwDgYDVQQK
EwdKdW5pcGVyMQ0wCwYDVQQLEwRCYXNlMSIwIAYJKoZIhvcNAQkBFhNzdHVkZW50
QGp1bmlwZXIubmV0MB4XDTE5MDEzMDE4MDI1M1oXDTI5MDEyNzE4MDI1M1owXjEL
MAkGA1UEBhMCVVMxEzARBgNVBAgTCkNhbGlmb3JuaWExEDAOBgNVBAoTB0p1bmlw
ZXIxDTALBgNVBAsTBEJhc2UxGTAXBgNVBAMTEHNyeDcuanVuaXBlci5uZXQwgZ8w
DQYJKoZIhvcNAQEBBQADgY0AMIGJAoGBANQwROpARSLftU3iNYQ/iACSYOALxutz
Bi8YGjBbn1OUJJB9yn9umGR8fmYpKKd1ApCXStIPm0uhmoO+sJPUsLWuqsNppsDY
PGoVM3mECtiZ8uSZxWOpEZflz7JYNfpTKF9sHb7nW4bl+cI+xK3ACMNo6aajttkm
inp7pCQ4bv0BAgMBAAGjIjAgMB4GA1UdEQQXMBWBE3N0dWRlbnRAanVuaXBlci5u
ZXQwDQYJKoZIhvcNAQEMBQADgYEAEVj9WZfCV0OFDFNdbp6bAul3JoRFa0Yyot9m
IlO7DnxkmFKrcItjyqvOieBT/H0LKEEoTWBHNGQwvWnw1ztEdciIvPJl9efuC0I2
VA1EvaTpR93PY6c6djV/R6TxiLovmuxlWZcUzrOM2nFVt5fhE/niSdjLOFyydJpq
D252hyI=
-----END CERTIFICATE-----
